; Function Attrs: nounwind uwtable
define dso_local ptr @extract_grouping_collations(ptr noundef readonly captures(address_is_null) %0, ptr noundef readonly captures(address_is_null) %1) local_unnamed_addr #0 {
  %.not.i = icmp eq ptr %0, null
  br i1 %.not.i, label %list_length.exit.thread, label %.lr.ph

list_length.exit.thread:                          ; preds = %2
  %3 = tail call ptr @palloc(i64 noundef 0) #10
  br label %._crit_edge

.lr.ph:                                           ; preds = %2
  %4 = getelementptr inbounds nuw i8, ptr %0, i64 4
  %5 = load i32, ptr %4, align 4
  %6 = sext i32 %5 to i64
  %7 = shl nsw i64 %6, 2
  %8 = tail call ptr @palloc(i64 noundef %7) #10
  %9 = getelementptr inbounds nuw i8, ptr %0, i64 4
  %10 = getelementptr inbounds nuw i8, ptr %0, i64 16
  %.not.i.i = icmp eq ptr %1, null
  %11 = getelementptr inbounds nuw i8, ptr %1, i64 4
  %12 = getelementptr inbounds nuw i8, ptr %1, i64 16
  %13 = load i32, ptr %9, align 4
  %14 = icmp sgt i32 %13, 0
  br i1 %.not.i.i, label %.lr.ph.split.us, label %.lr.ph.split.split

.lr.ph.split.us:                                  ; preds = %.lr.ph
  br i1 %14, label %._crit_edge.i.i, label %._crit_edge

.lr.ph.split.split:                               ; preds = %.lr.ph
  br i1 %14, label %.lr.ph.i.i, label %._crit_edge

._crit_edge:                                      ; preds = %get_sortgroupclause_tle.exit, %list_length.exit.thread, %.lr.ph.split.us, %.lr.ph.split.split
  %15 = phi ptr [ %3, %list_length.exit.thread ], [ %8, %.lr.ph.split.us ], [ %8, %.lr.ph.split.split ], [ %8, %get_sortgroupclause_tle.exit ]
  ret ptr %15

.lr.ph.i.i:                                       ; preds = %.lr.ph.split.split, %get_sortgroupclause_tle.exit
  %indvars.iv = phi i64 [ %indvars.iv.next, %get_sortgroupclause_tle.exit ], [ 0, %.lr.ph.split.split ]
  %16 = load ptr, ptr %10, align 8
  %17 = getelementptr inbounds nuw %union.ListCell, ptr %16, i64 %indvars.iv
  %18 = load ptr, ptr %17, align 8
  %19 = getelementptr inbounds nuw i8, ptr %18, i64 4
  %20 = load i32, ptr %19, align 4
  %21 = load i32, ptr %11, align 4
  %22 = icmp sgt i32 %21, 0
  br i1 %22, label %.lr.ph27.i.i, label %._crit_edge.i.i

.lr.ph27.i.i:                                     ; preds = %.lr.ph.i.i
  %23 = load ptr, ptr %12, align 8
  %wide.trip.count.i.i = zext nneg i32 %21 to i64
  br label %25

24:                                               ; preds = %25
  %indvars.iv.next.i.i = add nuw nsw i64 %indvars.iv.i.i, 1
  %exitcond.not.i.i = icmp eq i64 %indvars.iv.next.i.i, %wide.trip.count.i.i
  br i1 %exitcond.not.i.i, label %._crit_edge.i.i, label %25

25:                                               ; preds = %24, %.lr.ph27.i.i
  %indvars.iv.i.i = phi i64 [ 0, %.lr.ph27.i.i ], [ %indvars.iv.next.i.i, %24 ]
  %26 = getelementptr inbounds nuw %union.ListCell, ptr %23, i64 %indvars.iv.i.i
  %27 = load ptr, ptr %26, align 8
  %28 = getelementptr inbounds nuw i8, ptr %27, i64 32
  %29 = load i32, ptr %28, align 8
  %.not17.i.i = icmp eq i32 %29, %20
  br i1 %.not17.i.i, label %get_sortgroupclause_tle.exit, label %24

._crit_edge.i.i:                                  ; preds = %.lr.ph.i.i, %24, %.lr.ph.split.us
  %30 = tail call zeroext i1 @errstart_cold(i32 noundef 21, ptr noundef null) #11
  tail call void @llvm.assume(i1 %30)
  %31 = tail call i32 (ptr, ...) @errmsg_internal(ptr noundef nonnull @.str) #10
  tail call void @errfinish(ptr noundef nonnull @.str.1, i32 noundef 357, ptr noundef nonnull @__func__.get_sortgroupref_tle) #10
  unreachable

get_sortgroupclause_tle.exit:                     ; preds = %25
  %32 = getelementptr inbounds nuw i8, ptr %27, i64 8
  %33 = load ptr, ptr %32, align 8
  %34 = tail call i32 @exprCollation(ptr noundef %33) #10
  %indvars.iv.next = add nuw nsw i64 %indvars.iv, 1
  %35 = getelementptr inbounds nuw i32, ptr %8, i64 %indvars.iv
  store i32 %34, ptr %35, align 4
  %36 = load i32, ptr %9, align 4
  %37 = sext i32 %36 to i64
  %38 = icmp slt i64 %indvars.iv.next, %37
  br i1 %38, label %.lr.ph.i.i, label %._crit_edge
}